; Function Attrs: mustprogress nounwind uwtable
define dso_local void @_ZN4llvm8codeview28DebugSubsectionRecordBuilderC2ESt10shared_ptrINS0_15DebugSubsectionEE(ptr noundef nonnull align 8 dereferenceable(72) %0, ptr nocapture noundef %1) unnamed_addr #2 align 2 {
  %3 = load ptr, ptr %1, align 8
  store ptr %3, ptr %0, align 8
  %4 = getelementptr inbounds nuw i8, ptr %0, i64 8
  store ptr null, ptr %4, align 8
  %5 = getelementptr inbounds nuw i8, ptr %1, i64 8
  %6 = load ptr, ptr %5, align 8
  store ptr null, ptr %5, align 8
  store ptr %6, ptr %4, align 8
  store ptr null, ptr %1, align 8
  %7 = getelementptr inbounds nuw i8, ptr %0, i64 16
  tail call void @_ZN4llvm8codeview21DebugSubsectionRecordC1Ev(ptr noundef nonnull align 8 dereferenceable(56) %7) #11
  ret void
}